; ModuleID = 'source-C-CXX/3/804.cpp'
source_filename = "source-C-CXX/3/804.cpp"
target datalayout = "e-m:e-p270:32:32-p271:32:32-p272:64:64-i64:64-f80:128-n8:16:32:64-S128"
target triple = "x86_64-pc-linux-gnu"

%"class.std::ios_base::Init" = type { i8 }
%"class.std::basic_istream" = type { i32 (...)**, i64, %"class.std::basic_ios" }
%"class.std::basic_ios" = type { %"class.std::ios_base", %"class.std::basic_ostream"*, i8, i8, %"class.std::basic_streambuf"*, %"class.std::ctype"*, %"class.std::num_put"*, %"class.std::num_get"* }
%"class.std::ios_base" = type { i32 (...)**, i64, i64, i32, i32, i32, %"struct.std::ios_base::_Callback_list"*, %"struct.std::ios_base::_Words", [8 x %"struct.std::ios_base::_Words"], i32, %"struct.std::ios_base::_Words"*, %"class.std::locale" }
%"struct.std::ios_base::_Callback_list" = type { %"struct.std::ios_base::_Callback_list"*, void (i32, %"class.std::ios_base"*, i32)*, i32, i32 }
%"struct.std::ios_base::_Words" = type { i8*, i64 }
%"class.std::locale" = type { %"class.std::locale::_Impl"* }
%"class.std::locale::_Impl" = type { i32, %"class.std::locale::facet"**, i64, %"class.std::locale::facet"**, i8** }
%"class.std::locale::facet" = type <{ i32 (...)**, i32, [4 x i8] }>
%"class.std::basic_ostream" = type { i32 (...)**, %"class.std::basic_ios" }
%"class.std::basic_streambuf" = type { i32 (...)**, i8*, i8*, i8*, i8*, i8*, i8*, %"class.std::locale" }
%"class.std::ctype" = type <{ %"class.std::locale::facet.base", [4 x i8], %struct.__locale_struct*, i8, [7 x i8], i32*, i32*, i16*, i8, [256 x i8], [256 x i8], i8, [6 x i8] }>
%"class.std::locale::facet.base" = type <{ i32 (...)**, i32 }>
%struct.__locale_struct = type { [13 x %struct.__locale_data*], i16*, i32*, i32*, [13 x i8*] }
%struct.__locale_data = type opaque
%"class.std::num_put" = type { %"class.std::locale::facet.base", [4 x i8] }
%"class.std::num_get" = type { %"class.std::locale::facet.base", [4 x i8] }

@_ZStL8__ioinit = internal global %"class.std::ios_base::Init" zeroinitializer, align 1
@__dso_handle = external hidden global i8
@_ZSt3cin = external global %"class.std::basic_istream", align 8
@_ZSt4cout = external global %"class.std::basic_ostream", align 8
@llvm.global_ctors = appending global [1 x { i32, void ()*, i8* }] [{ i32, void ()*, i8* } { i32 65535, void ()* @_GLOBAL__sub_I_804.cpp, i8* null }]

declare void @_ZNSt8ios_base4InitC1Ev(%"class.std::ios_base::Init"* nonnull align 1 dereferenceable(1)) unnamed_addr #0

; Function Attrs: nounwind
declare void @_ZNSt8ios_base4InitD1Ev(%"class.std::ios_base::Init"* nonnull align 1 dereferenceable(1)) unnamed_addr #1

; Function Attrs: nofree nounwind
declare i32 @__cxa_atexit(void (i8*)*, i8*, i8*) local_unnamed_addr #2

; Function Attrs: mustprogress norecurse sspstrong uwtable
define dso_local i32 @main() local_unnamed_addr #3 {
  %1 = alloca i32, align 4
  %2 = alloca i32, align 4
  %3 = alloca [100 x [100 x i32]], align 16
  %4 = bitcast i32* %1 to i8*
  call void @llvm.lifetime.start.p0i8(i64 4, i8* nonnull %4) #7
  %5 = bitcast i32* %2 to i8*
  call void @llvm.lifetime.start.p0i8(i64 4, i8* nonnull %5) #7
  %6 = bitcast [100 x [100 x i32]]* %3 to i8*
  call void @llvm.lifetime.start.p0i8(i64 40000, i8* nonnull %6) #7
  %7 = call nonnull align 8 dereferenceable(16) %"class.std::basic_istream"* @_ZNSirsERi(%"class.std::basic_istream"* nonnull align 8 dereferenceable(16) @_ZSt3cin, i32* nonnull align 4 dereferenceable(4) %1)
  %8 = call nonnull align 8 dereferenceable(16) %"class.std::basic_istream"* @_ZNSirsERi(%"class.std::basic_istream"* nonnull align 8 dereferenceable(16) %7, i32* nonnull align 4 dereferenceable(4) %2)
  %9 = load i32, i32* %1, align 4, !tbaa !5
  %10 = icmp sgt i32 %9, 0
  %11 = load i32, i32* %2, align 4, !tbaa !5
  %12 = icmp sgt i32 %11, 0
  %13 = select i1 %10, i1 %12, i1 false
  br i1 %13, label %14, label %19

14:                                               ; preds = %0, %27
  %15 = phi i32 [ %28, %27 ], [ %9, %0 ]
  %16 = phi i32 [ %29, %27 ], [ %11, %0 ]
  %17 = phi i64 [ %30, %27 ], [ 0, %0 ]
  %18 = icmp sgt i32 %16, 0
  br i1 %18, label %33, label %27

19:                                               ; preds = %27, %0
  %20 = phi i32 [ %11, %0 ], [ %29, %27 ]
  %21 = phi i32 [ %9, %0 ], [ %28, %27 ]
  %22 = add i32 %21, -1
  %23 = add i32 %22, %20
  %24 = icmp sgt i32 %23, 0
  br i1 %24, label %41, label %50

25:                                               ; preds = %33
  %26 = load i32, i32* %1, align 4, !tbaa !5
  br label %27

27:                                               ; preds = %25, %14
  %28 = phi i32 [ %26, %25 ], [ %15, %14 ]
  %29 = phi i32 [ %38, %25 ], [ %16, %14 ]
  %30 = add nuw nsw i64 %17, 1
  %31 = sext i32 %28 to i64
  %32 = icmp slt i64 %30, %31
  br i1 %32, label %14, label %19, !llvm.loop !9

33:                                               ; preds = %14, %33
  %34 = phi i64 [ %37, %33 ], [ 0, %14 ]
  %35 = getelementptr inbounds [100 x [100 x i32]], [100 x [100 x i32]]* %3, i64 0, i64 %17, i64 %34
  %36 = call nonnull align 8 dereferenceable(16) %"class.std::basic_istream"* @_ZNSirsERi(%"class.std::basic_istream"* nonnull align 8 dereferenceable(16) @_ZSt3cin, i32* nonnull align 4 dereferenceable(4) %35)
  %37 = add nuw nsw i64 %34, 1
  %38 = load i32, i32* %2, align 4, !tbaa !5
  %39 = sext i32 %38 to i64
  %40 = icmp slt i64 %37, %39
  br i1 %40, label %33, label %25, !llvm.loop !12

41:                                               ; preds = %19, %54
  %42 = phi i32 [ %55, %54 ], [ %20, %19 ]
  %43 = phi i32 [ %56, %54 ], [ %21, %19 ]
  %44 = phi i64 [ %57, %54 ], [ 0, %19 ]
  %45 = getelementptr inbounds [100 x [100 x i32]], [100 x [100 x i32]]* %3, i64 0, i64 %44
  %46 = icmp sgt i32 %42, 0
  br i1 %46, label %47, label %54

47:                                               ; preds = %41
  %48 = zext i32 %42 to i64
  %49 = trunc i64 %44 to i32
  br label %62

50:                                               ; preds = %54, %19
  call void @llvm.lifetime.end.p0i8(i64 40000, i8* nonnull %6) #7
  call void @llvm.lifetime.end.p0i8(i64 4, i8* nonnull %5) #7
  call void @llvm.lifetime.end.p0i8(i64 4, i8* nonnull %4) #7
  ret i32 0

51:                                               ; preds = %106
  %52 = load i32, i32* %1, align 4, !tbaa !5
  %53 = load i32, i32* %2, align 4, !tbaa !5
  br label %54

54:                                               ; preds = %51, %41
  %55 = phi i32 [ %53, %51 ], [ %42, %41 ]
  %56 = phi i32 [ %52, %51 ], [ %43, %41 ]
  %57 = add nuw nsw i64 %44, 1
  %58 = add i32 %56, -1
  %59 = add i32 %58, %55
  %60 = sext i32 %59 to i64
  %61 = icmp slt i64 %57, %60
  br i1 %61, label %41, label %50, !llvm.loop !13

62:                                               ; preds = %108, %47
  %63 = phi i32 [ %43, %47 ], [ %110, %108 ]
  %64 = phi i64 [ %48, %47 ], [ %109, %108 ]
  %65 = phi i32 [ %42, %47 ], [ %66, %108 ]
  %66 = add nsw i32 %65, -1
  %67 = sub nsw i32 %49, %66
  %68 = icmp slt i32 %67, %63
  %69 = icmp sgt i32 %67, -1
  %70 = and i1 %69, %68
  br i1 %70, label %71, label %106

71:                                               ; preds = %62
  %72 = zext i32 %66 to i64
  %73 = sub nsw i64 0, %72
  %74 = getelementptr inbounds [100 x i32], [100 x i32]* %45, i64 %73, i64 %72
  %75 = load i32, i32* %74, align 4, !tbaa !5
  %76 = call nonnull align 8 dereferenceable(8) %"class.std::basic_ostream"* @_ZNSolsEi(%"class.std::basic_ostream"* nonnull align 8 dereferenceable(8) @_ZSt4cout, i32 %75)
  %77 = bitcast %"class.std::basic_ostream"* %76 to i8**
  %78 = load i8*, i8** %77, align 8, !tbaa !14
  %79 = getelementptr i8, i8* %78, i64 -24
  %80 = bitcast i8* %79 to i64*
  %81 = load i64, i64* %80, align 8
  %82 = bitcast %"class.std::basic_ostream"* %76 to i8*
  %83 = add nsw i64 %81, 240
  %84 = getelementptr inbounds i8, i8* %82, i64 %83
  %85 = bitcast i8* %84 to %"class.std::ctype"**
  %86 = load %"class.std::ctype"*, %"class.std::ctype"** %85, align 8, !tbaa !16
  %87 = icmp eq %"class.std::ctype"* %86, null
  br i1 %87, label %88, label %89

88:                                               ; preds = %71
  call void @_ZSt16__throw_bad_castv() #8
  unreachable

89:                                               ; preds = %71
  %90 = getelementptr inbounds %"class.std::ctype", %"class.std::ctype"* %86, i64 0, i32 8
  %91 = load i8, i8* %90, align 8, !tbaa !20
  %92 = icmp eq i8 %91, 0
  br i1 %92, label %96, label %93

93:                                               ; preds = %89
  %94 = getelementptr inbounds %"class.std::ctype", %"class.std::ctype"* %86, i64 0, i32 9, i64 10
  %95 = load i8, i8* %94, align 1, !tbaa !22
  br label %102

96:                                               ; preds = %89
  call void @_ZNKSt5ctypeIcE13_M_widen_initEv(%"class.std::ctype"* nonnull align 8 dereferenceable(570) %86)
  %97 = bitcast %"class.std::ctype"* %86 to i8 (%"class.std::ctype"*, i8)***
  %98 = load i8 (%"class.std::ctype"*, i8)**, i8 (%"class.std::ctype"*, i8)*** %97, align 8, !tbaa !14
  %99 = getelementptr inbounds i8 (%"class.std::ctype"*, i8)*, i8 (%"class.std::ctype"*, i8)** %98, i64 6
  %100 = load i8 (%"class.std::ctype"*, i8)*, i8 (%"class.std::ctype"*, i8)** %99, align 8
  %101 = call signext i8 %100(%"class.std::ctype"* nonnull align 8 dereferenceable(570) %86, i8 signext 10)
  br label %102

102:                                              ; preds = %93, %96
  %103 = phi i8 [ %95, %93 ], [ %101, %96 ]
  %104 = call nonnull align 8 dereferenceable(8) %"class.std::basic_ostream"* @_ZNSo3putEc(%"class.std::basic_ostream"* nonnull align 8 dereferenceable(8) %76, i8 signext %103)
  %105 = call nonnull align 8 dereferenceable(8) %"class.std::basic_ostream"* @_ZNSo5flushEv(%"class.std::basic_ostream"* nonnull align 8 dereferenceable(8) %104)
  br label %106

106:                                              ; preds = %62, %102
  %107 = icmp sgt i64 %64, 1
  br i1 %107, label %108, label %51, !llvm.loop !23

108:                                              ; preds = %106
  %109 = add nsw i64 %64, -1
  %110 = load i32, i32* %1, align 4, !tbaa !5
  br label %62
}

; Function Attrs: argmemonly mustprogress nofree nosync nounwind willreturn
declare void @llvm.lifetime.start.p0i8(i64 immarg, i8* nocapture) #4

declare nonnull align 8 dereferenceable(16) %"class.std::basic_istream"* @_ZNSirsERi(%"class.std::basic_istream"* nonnull align 8 dereferenceable(16), i32* nonnull align 4 dereferenceable(4)) local_unnamed_addr #0

; Function Attrs: argmemonly mustprogress nofree nosync nounwind willreturn
declare void @llvm.lifetime.end.p0i8(i64 immarg, i8* nocapture) #4

declare nonnull align 8 dereferenceable(8) %"class.std::basic_ostream"* @_ZNSolsEi(%"class.std::basic_ostream"* nonnull align 8 dereferenceable(8), i32) local_unnamed_addr #0

declare nonnull align 8 dereferenceable(8) %"class.std::basic_ostream"* @_ZNSo3putEc(%"class.std::basic_ostream"* nonnull align 8 dereferenceable(8), i8 signext) local_unnamed_addr #0

declare nonnull align 8 dereferenceable(8) %"class.std::basic_ostream"* @_ZNSo5flushEv(%"class.std::basic_ostream"* nonnull align 8 dereferenceable(8)) local_unnamed_addr #0

; Function Attrs: noreturn
declare void @_ZSt16__throw_bad_castv() local_unnamed_addr #5

declare void @_ZNKSt5ctypeIcE13_M_widen_initEv(%"class.std::ctype"* nonnull align 8 dereferenceable(570)) local_unnamed_addr #0

; Function Attrs: sspstrong uwtable
define internal void @_GLOBAL__sub_I_804.cpp() #6 section ".text.startup" {
  tail call void @_ZNSt8ios_base4InitC1Ev(%"class.std::ios_base::Init"* nonnull align 1 dereferenceable(1) @_ZStL8__ioinit)
  %1 = tail call i32 @__cxa_atexit(void (i8*)* bitcast (void (%"class.std::ios_base::Init"*)* @_ZNSt8ios_base4InitD1Ev to void (i8*)*), i8* getelementptr inbounds (%"class.std::ios_base::Init", %"class.std::ios_base::Init"* @_ZStL8__ioinit, i64 0, i32 0), i8* nonnull @__dso_handle) #7
  ret void
}


!llvm.module.flags = !{!0, !1, !2, !3}
!llvm.ident = !{!4}

!0 = !{i32 1, !"wchar_size", i32 4}
!1 = !{i32 7, !"PIC Level", i32 2}
!2 = !{i32 7, !"PIE Level", i32 2}
!3 = !{i32 7, !"uwtable", i32 1}
!4 = !{!"clang version 13.0.0"}
!5 = !{!6, !6, i64 0}
!6 = !{!"int", !7, i64 0}
!7 = !{!"omnipotent char", !8, i64 0}
!8 = !{!"Simple C++ TBAA"}
!9 = distinct !{!9, !10, !11}
!10 = !{!"llvm.loop.mustprogress"}
!11 = !{!"llvm.loop.unswitch.partial.disable"}
!12 = distinct !{!12, !10}
!13 = distinct !{!13, !10}
!14 = !{!15, !15, i64 0}
!15 = !{!"vtable pointer", !8, i64 0}
!16 = !{!17, !18, i64 240}
!17 = !{!"_ZTSSt9basic_iosIcSt11char_traitsIcEE", !18, i64 216, !7, i64 224, !19, i64 225, !18, i64 232, !18, i64 240, !18, i64 248, !18, i64 256}
!18 = !{!"any pointer", !7, i64 0}
!19 = !{!"bool", !7, i64 0}
!20 = !{!21, !7, i64 56}
!21 = !{!"_ZTSSt5ctypeIcE", !18, i64 16, !19, i64 24, !18, i64 32, !18, i64 40, !18, i64 48, !7, i64 56, !7, i64 57, !7, i64 313, !7, i64 569}
!22 = !{!7, !7, i64 0}
!23 = distinct !{!23, !10}
